target datalayout = "e-m:e-p270:32:32-p271:32:32-p272:64:64-i64:64-i128:128-f80:128-n8:16:32:64-S128"
target triple = "x86_64-pc-linux-gnu"

%struct.SDL_Rect = type { i32, i32, i32, i32 }
%struct.SDL_Surface = type { i32, i32, i32, i32, i32, ptr, i32, ptr, i32, i32, ptr, i32, ptr, i32, ptr, i32, %struct.SDL_Rect, %struct.SDL_BlitMap }
%struct.SDL_BlitMap = type { i32, ptr, ptr, %struct.SDL_BlitInfo, i32, i32 }
%struct.SDL_BlitInfo = type { ptr, ptr, i32, i32, i32, i32, ptr, ptr, i32, i32, i32, i32, ptr, ptr, ptr, ptr, ptr, ptr, i32, i32, i8, i8, i8, i8 }
%struct.SDL_PixelFormatDetails = type { i32, i8, i8, [2 x i8], i32, i32, i32, i32, i8, i8, i8, i8, i8, i8, i8, i8 }

@.str = private unnamed_addr constant [26 x i8] c"Parameter '%s' is invalid\00", align 1
@.str.3 = private unnamed_addr constant [26 x i8] c"SDL_BlendFillRects(): dst\00", align 1
@.str.4 = private unnamed_addr constant [49 x i8] c"SDL_BlendFillRects(): Unsupported surface format\00", align 1

; Function Attrs: nounwind uwtable
define hidden zeroext i1 @SDL_BlendFillRects(ptr noundef %0, ptr noundef %1, i32 noundef %2, i32 noundef %3, i8 noundef zeroext %4, i8 noundef zeroext %5, i8 noundef zeroext %6, i8 noundef zeroext %7) #0 {
  %9 = alloca i1, align 1
  %10 = alloca ptr, align 8
  %11 = alloca ptr, align 8
  %12 = alloca i32, align 4
  %13 = alloca i32, align 4
  %14 = alloca i8, align 1
  %15 = alloca i8, align 1
  %16 = alloca i8, align 1
  %17 = alloca i8, align 1
  %18 = alloca %struct.SDL_Rect, align 4
  %19 = alloca i32, align 4
  %20 = alloca ptr, align 8
  %21 = alloca i8, align 1
  %22 = alloca i32, align 4
  store ptr %0, ptr %10, align 8
  store ptr %1, ptr %11, align 8
  store i32 %2, ptr %12, align 4
  store i32 %3, ptr %13, align 4
  store i8 %4, ptr %14, align 1
  store i8 %5, ptr %15, align 1
  store i8 %6, ptr %16, align 1
  store i8 %7, ptr %17, align 1
  call void @llvm.lifetime.start.p0(i64 16, ptr %18) #3
  call void @llvm.lifetime.start.p0(i64 4, ptr %19) #3
  call void @llvm.lifetime.start.p0(i64 8, ptr %20) #3
  store ptr null, ptr %20, align 8
  call void @llvm.lifetime.start.p0(i64 1, ptr %21) #3
  store i8 1, ptr %21, align 1
  %23 = load ptr, ptr %10, align 8
  %24 = call zeroext i1 @SDL_SurfaceValid(ptr noundef %23)
  br i1 %24, label %27, label %25

25:                                               ; preds = %8
  %26 = call zeroext i1 (ptr, ...) @SDL_SetError_REAL(ptr noundef @.str, ptr noundef @.str.3)
  store i1 %26, ptr %9, align 1
  store i32 1, ptr %22, align 4
  br label %149

27:                                               ; preds = %8
  %28 = load ptr, ptr %10, align 8
  %29 = getelementptr inbounds nuw %struct.SDL_Surface, ptr %28, i32 0, i32 10
  %30 = load ptr, ptr %29, align 8
  %31 = getelementptr inbounds nuw %struct.SDL_PixelFormatDetails, ptr %30, i32 0, i32 1
  %32 = load i8, ptr %31, align 4
  %33 = zext i8 %32 to i32
  %34 = icmp slt i32 %33, 8
  br i1 %34, label %35, label %37

35:                                               ; preds = %27
  %36 = call zeroext i1 (ptr, ...) @SDL_SetError_REAL(ptr noundef @.str.4)
  store i1 %36, ptr %9, align 1
  store i32 1, ptr %22, align 4
  br label %149

37:                                               ; preds = %27
  %38 = load i32, ptr %13, align 4
  %39 = icmp eq i32 %38, 1
  br i1 %39, label %43, label %40

40:                                               ; preds = %37
  %41 = load i32, ptr %13, align 4
  %42 = icmp eq i32 %41, 2
  br i1 %42, label %43, label %65

43:                                               ; preds = %40, %37
  %44 = load i8, ptr %14, align 1
  %45 = zext i8 %44 to i32
  %46 = load i8, ptr %17, align 1
  %47 = zext i8 %46 to i32
  %48 = mul i32 %45, %47
  %49 = udiv i32 %48, 255
  %50 = trunc i32 %49 to i8
  store i8 %50, ptr %14, align 1
  %51 = load i8, ptr %15, align 1
  %52 = zext i8 %51 to i32
  %53 = load i8, ptr %17, align 1
  %54 = zext i8 %53 to i32
  %55 = mul i32 %52, %54
  %56 = udiv i32 %55, 255
  %57 = trunc i32 %56 to i8
  store i8 %57, ptr %15, align 1
  %58 = load i8, ptr %16, align 1
  %59 = zext i8 %58 to i32
  %60 = load i8, ptr %17, align 1
  %61 = zext i8 %60 to i32
  %62 = mul i32 %59, %61
  %63 = udiv i32 %62, 255
  %64 = trunc i32 %63 to i8
  store i8 %64, ptr %16, align 1
  br label %65

65:                                               ; preds = %43, %40
  %66 = load ptr, ptr %10, align 8
  %67 = getelementptr inbounds nuw %struct.SDL_Surface, ptr %66, i32 0, i32 10
  %68 = load ptr, ptr %67, align 8
  %69 = getelementptr inbounds nuw %struct.SDL_PixelFormatDetails, ptr %68, i32 0, i32 1
  %70 = load i8, ptr %69, align 4
  %71 = zext i8 %70 to i32
  switch i32 %71, label %105 [
    i32 15, label %72
    i32 16, label %80
    i32 32, label %88
  ]

72:                                               ; preds = %65
  %73 = load ptr, ptr %10, align 8
  %74 = getelementptr inbounds nuw %struct.SDL_Surface, ptr %73, i32 0, i32 10
  %75 = load ptr, ptr %74, align 8
  %76 = getelementptr inbounds nuw %struct.SDL_PixelFormatDetails, ptr %75, i32 0, i32 4
  %77 = load i32, ptr %76, align 4
  switch i32 %77, label %79 [
    i32 31744, label %78
  ]

78:                                               ; preds = %72
  store ptr @SDL_BlendFillRect_RGB555, ptr %20, align 8
  br label %79

79:                                               ; preds = %78, %72
  br label %106

80:                                               ; preds = %65
  %81 = load ptr, ptr %10, align 8
  %82 = getelementptr inbounds nuw %struct.SDL_Surface, ptr %81, i32 0, i32 10
  %83 = load ptr, ptr %82, align 8
  %84 = getelementptr inbounds nuw %struct.SDL_PixelFormatDetails, ptr %83, i32 0, i32 4
  %85 = load i32, ptr %84, align 4
  switch i32 %85, label %87 [
    i32 63488, label %86
  ]

86:                                               ; preds = %80
  store ptr @SDL_BlendFillRect_RGB565, ptr %20, align 8
  br label %87

87:                                               ; preds = %86, %80
  br label %106

88:                                               ; preds = %65
  %89 = load ptr, ptr %10, align 8
  %90 = getelementptr inbounds nuw %struct.SDL_Surface, ptr %89, i32 0, i32 10
  %91 = load ptr, ptr %90, align 8
  %92 = getelementptr inbounds nuw %struct.SDL_PixelFormatDetails, ptr %91, i32 0, i32 4
  %93 = load i32, ptr %92, align 4
  switch i32 %93, label %104 [
    i32 16711680, label %94
  ]

94:                                               ; preds = %88
  %95 = load ptr, ptr %10, align 8
  %96 = getelementptr inbounds nuw %struct.SDL_Surface, ptr %95, i32 0, i32 10
  %97 = load ptr, ptr %96, align 8
  %98 = getelementptr inbounds nuw %struct.SDL_PixelFormatDetails, ptr %97, i32 0, i32 7
  %99 = load i32, ptr %98, align 4
  %100 = icmp ne i32 %99, 0
  br i1 %100, label %102, label %101

101:                                              ; preds = %94
  store ptr @SDL_BlendFillRect_XRGB8888, ptr %20, align 8
  br label %103

102:                                              ; preds = %94
  store ptr @SDL_BlendFillRect_ARGB8888, ptr %20, align 8
  br label %103

103:                                              ; preds = %102, %101
  br label %104

104:                                              ; preds = %88, %103
  br label %106

105:                                              ; preds = %65
  br label %106

106:                                              ; preds = %105, %104, %87, %79
  %107 = load ptr, ptr %20, align 8
  %108 = icmp ne ptr %107, null
  br i1 %108, label %119, label %109

109:                                              ; preds = %106
  %110 = load ptr, ptr %10, align 8
  %111 = getelementptr inbounds nuw %struct.SDL_Surface, ptr %110, i32 0, i32 10
  %112 = load ptr, ptr %111, align 8
  %113 = getelementptr inbounds nuw %struct.SDL_PixelFormatDetails, ptr %112, i32 0, i32 7
  %114 = load i32, ptr %113, align 4
  %115 = icmp ne i32 %114, 0
  br i1 %115, label %117, label %116

116:                                              ; preds = %109
  store ptr @SDL_BlendFillRect_RGB, ptr %20, align 8
  br label %118

117:                                              ; preds = %109
  store ptr @SDL_BlendFillRect_RGBA, ptr %20, align 8
  br label %118

118:                                              ; preds = %117, %116
  br label %119

119:                                              ; preds = %118, %106
  store i32 0, ptr %19, align 4
  br label %120

120:                                              ; preds = %143, %119
  %121 = load i32, ptr %19, align 4
  %122 = load i32, ptr %12, align 4
  %123 = icmp slt i32 %121, %122
  br i1 %123, label %124, label %146

124:                                              ; preds = %120
  %125 = load ptr, ptr %11, align 8
  %126 = load i32, ptr %19, align 4
  %127 = sext i32 %126 to i64
  %128 = getelementptr inbounds %struct.SDL_Rect, ptr %125, i64 %127
  %129 = load ptr, ptr %10, align 8
  %130 = getelementptr inbounds nuw %struct.SDL_Surface, ptr %129, i32 0, i32 16
  %131 = call zeroext i1 @SDL_GetRectIntersection_REAL(ptr noundef %128, ptr noundef %130, ptr noundef %18)
  br i1 %131, label %133, label %132

132:                                              ; preds = %124
  br label %143

133:                                              ; preds = %124
  %134 = load ptr, ptr %20, align 8
  %135 = load ptr, ptr %10, align 8
  %136 = load i32, ptr %13, align 4
  %137 = load i8, ptr %14, align 1
  %138 = load i8, ptr %15, align 1
  %139 = load i8, ptr %16, align 1
  %140 = load i8, ptr %17, align 1
  %141 = call zeroext i1 %134(ptr noundef %135, ptr noundef %18, i32 noundef %136, i8 noundef zeroext %137, i8 noundef zeroext %138, i8 noundef zeroext %139, i8 noundef zeroext %140)
  %142 = zext i1 %141 to i8
  store i8 %142, ptr %21, align 1
  br label %143

143:                                              ; preds = %133, %132
  %144 = load i32, ptr %19, align 4
  %145 = add nsw i32 %144, 1
  store i32 %145, ptr %19, align 4
  br label %120, !llvm.loop !88

146:                                              ; preds = %120
  %147 = load i8, ptr %21, align 1, !range !89, !noundef !90
  %148 = trunc i8 %147 to i1
  store i1 %148, ptr %9, align 1
  store i32 1, ptr %22, align 4
  br label %149

149:                                              ; preds = %146, %35, %25
  call void @llvm.lifetime.end.p0(i64 1, ptr %21) #3
  call void @llvm.lifetime.end.p0(i64 8, ptr %20) #3
  call void @llvm.lifetime.end.p0(i64 4, ptr %19) #3
  call void @llvm.lifetime.end.p0(i64 16, ptr %18) #3
  %150 = load i1, ptr %9, align 1
  ret i1 %150
}