; Function Attrs: nounwind uwtable
define hidden zeroext i1 @SDL_BlendFillRects(ptr noundef %0, ptr noundef %1, i32 noundef %2, i32 noundef %3, i8 noundef zeroext %4, i8 noundef zeroext %5, i8 noundef zeroext %6, i8 noundef zeroext %7) local_unnamed_addr #0 {
  %9 = alloca %struct.SDL_Rect, align 4
  call void @llvm.lifetime.start.p0(i64 16, ptr nonnull %9) #5
  %10 = tail call zeroext i1 @SDL_SurfaceValid(ptr noundef %0) #5
  br i1 %10, label %13, label %11

11:                                               ; preds = %8
  %12 = tail call zeroext i1 (ptr, ...) @SDL_SetError_REAL(ptr noundef nonnull @.str, ptr noundef nonnull @.str.3) #5
  br label %.loopexit

13:                                               ; preds = %8
  %14 = getelementptr inbounds nuw i8, ptr %0, i64 56
  %15 = load ptr, ptr %14, align 8
  %16 = getelementptr inbounds nuw i8, ptr %15, i64 4
  %17 = load i8, ptr %16, align 4
  %18 = icmp ult i8 %17, 8
  br i1 %18, label %19, label %21

19:                                               ; preds = %13
  %20 = tail call zeroext i1 (ptr, ...) @SDL_SetError_REAL(ptr noundef nonnull @.str.4) #5
  br label %.loopexit

21:                                               ; preds = %13
  %22 = add i32 %3, -1
  %or.cond = icmp ult i32 %22, 2
  br i1 %or.cond, label %23, label %37

23:                                               ; preds = %21
  %24 = zext i8 %4 to i32
  %25 = zext i8 %7 to i32
  %26 = mul nuw nsw i32 %25, %24
  %.lhs.trunc = trunc nuw i32 %26 to i16
  %27 = udiv i16 %.lhs.trunc, 255
  %28 = trunc nuw i16 %27 to i8
  %29 = zext i8 %5 to i32
  %30 = mul nuw nsw i32 %25, %29
  %.lhs.trunc51 = trunc nuw i32 %30 to i16
  %31 = udiv i16 %.lhs.trunc51, 255
  %32 = trunc nuw i16 %31 to i8
  %33 = zext i8 %6 to i32
  %34 = mul nuw nsw i32 %25, %33
  %.lhs.trunc53 = trunc nuw i32 %34 to i16
  %35 = udiv i16 %.lhs.trunc53, 255
  %36 = trunc nuw i16 %35 to i8
  br label %37

37:                                               ; preds = %21, %23
  %.040 = phi i8 [ %28, %23 ], [ %4, %21 ]
  %.039 = phi i8 [ %32, %23 ], [ %5, %21 ]
  %.038 = phi i8 [ %36, %23 ], [ %6, %21 ]
  switch i8 %17, label %.thread [
    i8 15, label %38
    i8 16, label %46
    i8 32, label %41
  ]

38:                                               ; preds = %37
  %39 = getelementptr inbounds nuw i8, ptr %15, i64 8
  %40 = load i32, ptr %39, align 4
  %cond2.not = icmp eq i32 %40, 31744
  br i1 %cond2.not, label %51, label %.thread

41:                                               ; preds = %37
  %42 = getelementptr inbounds nuw i8, ptr %15, i64 8
  %43 = load i32, ptr %42, align 4
  %cond = icmp eq i32 %43, 16711680
  br i1 %cond, label %.thread48, label %.thread

.thread48:                                        ; preds = %41
  %44 = getelementptr inbounds nuw i8, ptr %15, i64 20
  %45 = load i32, ptr %44, align 4
  %.not = icmp eq i32 %45, 0
  %SDL_BlendFillRect_XRGB8888.SDL_BlendFillRect_ARGB8888 = select i1 %.not, ptr @SDL_BlendFillRect_XRGB8888, ptr @SDL_BlendFillRect_ARGB8888
  br label %51

46:                                               ; preds = %37
  %47 = getelementptr inbounds nuw i8, ptr %15, i64 8
  %48 = load i32, ptr %47, align 4
  %cond1.not = icmp eq i32 %48, 63488
  br i1 %cond1.not, label %51, label %.thread

.thread:                                          ; preds = %41, %37, %38, %46
  %49 = getelementptr inbounds nuw i8, ptr %15, i64 20
  %50 = load i32, ptr %49, align 4
  %.not42 = icmp eq i32 %50, 0
  %SDL_BlendFillRect_RGB.SDL_BlendFillRect_RGBA = select i1 %.not42, ptr @SDL_BlendFillRect_RGB, ptr @SDL_BlendFillRect_RGBA
  br label %51

51:                                               ; preds = %38, %.thread48, %.thread, %46
  %.135 = phi ptr [ @SDL_BlendFillRect_RGB565, %46 ], [ %SDL_BlendFillRect_RGB.SDL_BlendFillRect_RGBA, %.thread ], [ %SDL_BlendFillRect_XRGB8888.SDL_BlendFillRect_ARGB8888, %.thread48 ], [ @SDL_BlendFillRect_RGB555, %38 ]
  %52 = icmp sgt i32 %2, 0
  br i1 %52, label %.lr.ph, label %.loopexit

.lr.ph:                                           ; preds = %51
  %53 = getelementptr inbounds nuw i8, ptr %0, i64 100
  %wide.trip.count = zext nneg i32 %2 to i64
  br label %54

54:                                               ; preds = %.lr.ph, %59
  %indvars.iv = phi i64 [ 0, %.lr.ph ], [ %indvars.iv.next, %59 ]
  %.056 = phi i1 [ true, %.lr.ph ], [ %.1, %59 ]
  %55 = getelementptr inbounds nuw %struct.SDL_Rect, ptr %1, i64 %indvars.iv
  %56 = call zeroext i1 @SDL_GetRectIntersection_REAL(ptr noundef %55, ptr noundef nonnull %53, ptr noundef nonnull %9) #5
  br i1 %56, label %57, label %59

57:                                               ; preds = %54
  %58 = call zeroext i1 %.135(ptr noundef nonnull %0, ptr noundef nonnull %9, i32 noundef %3, i8 noundef zeroext %.040, i8 noundef zeroext %.039, i8 noundef zeroext %.038, i8 noundef zeroext %7) #5
  br label %59

59:                                               ; preds = %54, %57
  %.1 = phi i1 [ %58, %57 ], [ %.056, %54 ]
  %indvars.iv.next = add nuw nsw i64 %indvars.iv, 1
  %exitcond.not = icmp eq i64 %indvars.iv.next, %wide.trip.count
  br i1 %exitcond.not, label %.loopexit, label %54, !llvm.loop !88

.loopexit:                                        ; preds = %59, %51, %19, %11
  %.037 = phi i1 [ %20, %19 ], [ %12, %11 ], [ true, %51 ], [ %.1, %59 ]
  call void @llvm.lifetime.end.p0(i64 16, ptr nonnull %9) #5
  ret i1 %.037
}